target datalayout = "e-m:e-p270:32:32-p271:32:32-p272:64:64-i64:64-i128:128-f80:128-n8:16:32:64-S128"
target triple = "x86_64-pc-linux-gnu"

%struct.H5FD_log_fapl_t = type { ptr, i64, i64 }
%struct.H5FD_log_t = type { %struct.H5FD_t, i32, i64, i64, i8, [1024 x i8], i64, i64, i8, ptr, ptr, ptr, i64, i64, i64, i64, double, double, double, double, i64, ptr, %struct.H5FD_log_fapl_t }
%struct.H5FD_t = type { i64, ptr, i64, i32, i64, i64, i64, i64, i64, i8 }

@H5FD_init_g = external global i8, align 1
@H5_libterm_g = external global i8, align 1
@.str = private unnamed_addr constant [101 x i8] c"generated/home/dtcxzyw/WorkSpace/Projects/compilers/llvm-opt-benchmark/bench/hdf5/hdf5/src/H5FDlog.c\00", align 1
@H5E_VFL_g = external global i64, align 8
@.str.14 = private unnamed_addr constant [37 x i8] c"%s, errno = %d, error message = '%s'\00", align 1
@__func__.H5FD__log_unlock = private unnamed_addr constant [17 x i8] c"H5FD__log_unlock\00", align 1
@H5E_CANTUNLOCKFILE_g = external global i64, align 8
@.str.67 = private unnamed_addr constant [22 x i8] c"unable to unlock file\00", align 1

; Function Attrs: nounwind uwtable
define internal i32 @H5FD__log_unlock(ptr noundef %0) #0 {
  %2 = alloca i32, align 4
  %3 = alloca ptr, align 8
  %4 = alloca ptr, align 8
  %5 = alloca i32, align 4
  %6 = alloca i8, align 1
  %7 = alloca i32, align 4
  %8 = alloca i32, align 4
  store ptr %0, ptr %3, align 8, !tbaa !24
  call void @llvm.lifetime.start.p0(i64 8, ptr %4) #9
  %9 = load ptr, ptr %3, align 8, !tbaa !24
  store ptr %9, ptr %4, align 8, !tbaa !26
  call void @llvm.lifetime.start.p0(i64 4, ptr %5) #9
  store i32 0, ptr %5, align 4, !tbaa !3
  call void @llvm.lifetime.start.p0(i64 1, ptr %6) #9
  store i8 0, ptr %6, align 1, !tbaa !7
  %10 = load i8, ptr @H5FD_init_g, align 1, !tbaa !7, !range !9, !noundef !10
  %11 = trunc i8 %10 to i1
  br i1 %11, label %16, label %12

12:                                               ; preds = %1
  %13 = load i8, ptr @H5_libterm_g, align 1, !tbaa !7, !range !9, !noundef !10
  %14 = trunc i8 %13 to i1
  %15 = xor i1 %14, true
  br label %16

16:                                               ; preds = %12, %1
  %17 = phi i1 [ true, %1 ], [ %15, %12 ]
  %18 = xor i1 %17, true
  %19 = xor i1 %18, true
  %20 = zext i1 %19 to i32
  %21 = sext i32 %20 to i64
  %22 = call i64 @llvm.expect.i64(i64 %21, i64 1)
  %23 = icmp ne i64 %22, 0
  br i1 %23, label %24, label %71

24:                                               ; preds = %16
  %25 = load ptr, ptr %4, align 8, !tbaa !26
  %26 = getelementptr inbounds nuw %struct.H5FD_log_t, ptr %25, i32 0, i32 1
  %27 = load i32, ptr %26, align 8, !tbaa !32
  %28 = call i32 @flock(i32 noundef %27, i32 noundef 8) #9
  %29 = icmp slt i32 %28, 0
  br i1 %29, label %30, label %69

30:                                               ; preds = %24
  %31 = load ptr, ptr %4, align 8, !tbaa !26
  %32 = getelementptr inbounds nuw %struct.H5FD_log_t, ptr %31, i32 0, i32 4
  %33 = load i8, ptr %32, align 8, !tbaa !57, !range !9, !noundef !10
  %34 = trunc i8 %33 to i1
  br i1 %34, label %35, label %41

35:                                               ; preds = %30
  %36 = call ptr @__errno_location() #11
  %37 = load i32, ptr %36, align 4, !tbaa !3
  %38 = icmp eq i32 38, %37
  br i1 %38, label %39, label %41

39:                                               ; preds = %35
  %40 = call ptr @__errno_location() #11
  store i32 0, ptr %40, align 4, !tbaa !3
  br label %68

41:                                               ; preds = %35, %30
  call void @llvm.lifetime.start.p0(i64 4, ptr %7) #9
  %42 = call ptr @__errno_location() #11
  %43 = load i32, ptr %42, align 4, !tbaa !3
  store i32 %43, ptr %7, align 4, !tbaa !3
  br label %44

44:                                               ; preds = %41
  br label %45

45:                                               ; preds = %44
  br label %46

46:                                               ; preds = %45
  %47 = load i64, ptr @H5E_VFL_g, align 8, !tbaa !11
  %48 = load i64, ptr @H5E_CANTUNLOCKFILE_g, align 8, !tbaa !11
  %49 = load i32, ptr %7, align 4, !tbaa !3
  %50 = load i32, ptr %7, align 4, !tbaa !3
  %51 = call ptr @strerror(i32 noundef %50) #9
  %52 = call i32 (ptr, ptr, i32, i64, i64, ptr, ...) @H5E_printf_stack(ptr noundef @.str, ptr noundef @__func__.H5FD__log_unlock, i32 noundef 1677, i64 noundef %47, i64 noundef %48, ptr noundef @.str.14, ptr noundef @.str.67, i32 noundef %49, ptr noundef %51)
  br label %53

53:                                               ; preds = %46
  br label %54

54:                                               ; preds = %53
  store i8 1, ptr %6, align 1, !tbaa !7
  %55 = load i8, ptr %6, align 1, !tbaa !7, !range !9, !noundef !10
  %56 = trunc i8 %55 to i1
  %57 = zext i1 %56 to i8
  store i8 %57, ptr %6, align 1, !tbaa !7
  br label %58

58:                                               ; preds = %54
  br label %59

59:                                               ; preds = %58
  br label %60

60:                                               ; preds = %59
  store i32 -1, ptr %5, align 4, !tbaa !3
  store i32 10, ptr %8, align 4
  br label %65

61:                                               ; No predecessors!
  br label %62

62:                                               ; preds = %61
  br label %63

63:                                               ; preds = %62
  br label %64

64:                                               ; preds = %63
  store i32 0, ptr %8, align 4
  br label %65

65:                                               ; preds = %60, %64
  call void @llvm.lifetime.end.p0(i64 4, ptr %7) #9
  %66 = load i32, ptr %8, align 4
  switch i32 %66, label %73 [
    i32 0, label %67
    i32 10, label %70
  ]

67:                                               ; preds = %65
  br label %68

68:                                               ; preds = %67, %39
  br label %69

69:                                               ; preds = %68, %24
  br label %70

70:                                               ; preds = %69, %65
  br label %71

71:                                               ; preds = %70, %16
  %72 = load i32, ptr %5, align 4, !tbaa !3
  store i32 %72, ptr %2, align 4
  store i32 1, ptr %8, align 4
  br label %73

73:                                               ; preds = %71, %65
  call void @llvm.lifetime.end.p0(i64 1, ptr %6) #9
  call void @llvm.lifetime.end.p0(i64 4, ptr %5) #9
  call void @llvm.lifetime.end.p0(i64 8, ptr %4) #9
  %74 = load i32, ptr %2, align 4
  ret i32 %74
}