; Function Attrs: nounwind uwtable
define internal range(i32 -1, 1) i32 @H5FD__log_unlock(ptr noundef readonly captures(none) %0) #0 {
  %2 = load i8, ptr @H5FD_init_g, align 1, !tbaa !3, !range !7, !noundef !8
  %3 = trunc nuw i8 %2 to i1
  %4 = load i8, ptr @H5_libterm_g, align 1, !range !7
  %5 = trunc nuw i8 %4 to i1
  %6 = xor i1 %5, true
  %7 = select i1 %3, i1 true, i1 %6
  br i1 %7, label %8, label %27, !prof !9

8:                                                ; preds = %1
  %9 = getelementptr inbounds nuw i8, ptr %0, i64 80
  %10 = load i32, ptr %9, align 8, !tbaa !23
  %11 = tail call i32 @flock(i32 noundef %10, i32 noundef 8) #19
  %12 = icmp slt i32 %11, 0
  br i1 %12, label %13, label %27

13:                                               ; preds = %8
  %14 = getelementptr inbounds nuw i8, ptr %0, i64 104
  %15 = load i8, ptr %14, align 8, !tbaa !48, !range !7, !noundef !8
  %16 = trunc nuw i8 %15 to i1
  %17 = tail call ptr @__errno_location() #21
  br i1 %16, label %18, label %._crit_edge

18:                                               ; preds = %13
  %19 = load i32, ptr %17, align 4, !tbaa !21
  %20 = icmp eq i32 %19, 38
  br i1 %20, label %21, label %._crit_edge

21:                                               ; preds = %18
  store i32 0, ptr %17, align 4, !tbaa !21
  br label %27

._crit_edge:                                      ; preds = %13, %18
  %22 = load i32, ptr %17, align 4, !tbaa !21
  %23 = load i64, ptr @H5E_VFL_g, align 8, !tbaa !10
  %24 = load i64, ptr @H5E_CANTUNLOCKFILE_g, align 8, !tbaa !10
  %25 = tail call ptr @strerror(i32 noundef %22) #19
  %26 = tail call i32 (ptr, ptr, i32, i64, i64, ptr, ...) @H5E_printf_stack(ptr noundef nonnull @.str, ptr noundef nonnull @__func__.H5FD__log_unlock, i32 noundef 1677, i64 noundef %23, i64 noundef %24, ptr noundef nonnull @.str.14, ptr noundef nonnull @.str.67, i32 noundef %22, ptr noundef %25) #19
  br label %27

27:                                               ; preds = %1, %8, %21, %._crit_edge
  %.08 = phi i32 [ 0, %21 ], [ -1, %._crit_edge ], [ 0, %8 ], [ 0, %1 ]
  ret i32 %.08
}